; ModuleID = '30/91.c'
source_filename = "30/91.c"
target datalayout = "e-m:e-p270:32:32-p271:32:32-p272:64:64-i64:64-f80:128-n8:16:32:64-S128"
target triple = "x86_64-pc-linux-gnu"

@.str = private unnamed_addr constant [3 x i8] c"%d\00", align 1

; Function Attrs: noinline nounwind uwtable
define dso_local i32 @main() #0 {
  %1 = alloca i32, align 4
  %2 = alloca i32, align 4
  %3 = alloca [100 x i32], align 16
  %4 = alloca i32, align 4
  %5 = alloca i32, align 4
  %6 = alloca i32, align 4
  %7 = alloca i32, align 4
  %8 = alloca i32, align 4
  %9 = alloca i32, align 4
  store i32 0, i32* %1, align 4
  store i32 0, i32* %5, align 4
  %10 = call i32 (i8*, ...) @__isoc99_scanf(i8* getelementptr inbounds ([3 x i8], [3 x i8]* @.str, i64 0, i64 0), i32* %2)
  store i32 1, i32* %4, align 4
  br label %11

11:                                               ; preds = %67, %0
  %12 = load i32, i32* %4, align 4
  %13 = load i32, i32* %2, align 4
  %14 = icmp sle i32 %12, %13
  br i1 %14, label %15, label %70

15:                                               ; preds = %11
  %16 = load i32, i32* %4, align 4
  store i32 %16, i32* %6, align 4
  %17 = load i32, i32* %6, align 4
  %18 = load i32, i32* %4, align 4
  %19 = sext i32 %18 to i64
  %20 = getelementptr inbounds [100 x i32], [100 x i32]* %3, i64 0, i64 %19
  store i32 %17, i32* %20, align 4
  %21 = load i32, i32* %6, align 4
  %22 = srem i32 %21, 7
  %23 = icmp eq i32 %22, 0
  br i1 %23, label %24, label %28

24:                                               ; preds = %15
  %25 = load i32, i32* %4, align 4
  %26 = sext i32 %25 to i64
  %27 = getelementptr inbounds [100 x i32], [100 x i32]* %3, i64 0, i64 %26
  store i32 0, i32* %27, align 4
  br label %55

28:                                               ; preds = %15
  %29 = load i32, i32* %6, align 4
  %30 = srem i32 %29, 10
  store i32 %30, i32* %7, align 4
  %31 = load i32, i32* %6, align 4
  %32 = sdiv i32 %31, 10
  %33 = srem i32 %32, 10
  store i32 %33, i32* %8, align 4
  %34 = load i32, i32* %6, align 4
  %35 = sdiv i32 %34, 100
  %36 = srem i32 %35, 10
  store i32 %36, i32* %9, align 4
  %37 = load i32, i32* %7, align 4
  %38 = icmp ne i32 %37, 7
  br i1 %38, label %39, label %50

39:                                               ; preds = %28
  %40 = load i32, i32* %8, align 4
  %41 = icmp ne i32 %40, 7
  br i1 %41, label %42, label %50

42:                                               ; preds = %39
  %43 = load i32, i32* %9, align 4
  %44 = icmp ne i32 %43, 7
  br i1 %44, label %45, label %50

45:                                               ; preds = %42
  %46 = load i32, i32* %6, align 4
  %47 = load i32, i32* %4, align 4
  %48 = sext i32 %47 to i64
  %49 = getelementptr inbounds [100 x i32], [100 x i32]* %3, i64 0, i64 %48
  store i32 %46, i32* %49, align 4
  br label %54

50:                                               ; preds = %42, %39, %28
  %51 = load i32, i32* %4, align 4
  %52 = sext i32 %51 to i64
  %53 = getelementptr inbounds [100 x i32], [100 x i32]* %3, i64 0, i64 %52
  store i32 0, i32* %53, align 4
  br label %54

54:                                               ; preds = %50, %45
  br label %55

55:                                               ; preds = %54, %24
  %56 = load i32, i32* %5, align 4
  %57 = load i32, i32* %4, align 4
  %58 = sext i32 %57 to i64
  %59 = getelementptr inbounds [100 x i32], [100 x i32]* %3, i64 0, i64 %58
  %60 = load i32, i32* %59, align 4
  %61 = load i32, i32* %4, align 4
  %62 = sext i32 %61 to i64
  %63 = getelementptr inbounds [100 x i32], [100 x i32]* %3, i64 0, i64 %62
  %64 = load i32, i32* %63, align 4
  %65 = mul nsw i32 %60, %64
  %66 = add nsw i32 %56, %65
  store i32 %66, i32* %5, align 4
  br label %67

67:                                               ; preds = %55
  %68 = load i32, i32* %4, align 4
  %69 = add nsw i32 %68, 1
  store i32 %69, i32* %4, align 4
  br label %11

70:                                               ; preds = %11
  %71 = load i32, i32* %5, align 4
  %72 = call i32 (i8*, ...) @printf(i8* getelementptr inbounds ([3 x i8], [3 x i8]* @.str, i64 0, i64 0), i32 %71)
  %73 = load i32, i32* %1, align 4
  ret i32 %73
}

declare dso_local i32 @__isoc99_scanf(i8*, ...) #1

declare dso_local i32 @printf(i8*, ...) #1


!llvm.module.flags = !{!0}
!llvm.ident = !{!1}

!0 = !{i32 1, !"wchar_size", i32 4}
!1 = !{!"clang version 10.0.0-4ubuntu1 "}
